	.file	"datos.c"
	.text
	.section	.rodata
	.align 8
.LC0:
	.string	"\nCalculadora Linux\nEscoge que figura quieres calcular:"
	.align 8
.LC1:
	.string	"1. Tri\303\241ngulo\n2. Paralelogramo\n3. Cuadrado\n4. Rect\303\241ngulo\n5. Rombo\n6. Trapecio\n7. C\303\255rculo\n8. Pol\303\255gono Regular"
	.align 8
.LC2:
	.string	"\n9. Cubo\n10. Cuboide\n11. Cilindro Recto\n12. Esfera\n13. Cono Circular Recto\n14. SALIR"
	.text
	.globl	mostrar_menu_figuras
	.type	mostrar_menu_figuras, @function
mostrar_menu_figuras:
.LFB6:
	.cfi_startproc
	endbr64
	pushq	%rbp
	.cfi_def_cfa_offset 16
	.cfi_offset 6, -16
	movq	%rsp, %rbp
	.cfi_def_cfa_register 6
	leaq	.LC0(%rip), %rax
	movq	%rax, %rdi
	call	puts@PLT
	leaq	.LC1(%rip), %rax
	movq	%rax, %rdi
	movl	$0, %eax
	call	printf@PLT
	leaq	.LC2(%rip), %rax
	movq	%rax, %rdi
	movl	$0, %eax
	call	printf@PLT
	nop
	popq	%rbp
	.cfi_def_cfa 7, 8
	ret
	.cfi_endproc
.LFE6:
	.size	mostrar_menu_figuras, .-mostrar_menu_figuras
	.section	.rodata
.LC3:
	.string	"\nIngrese su opci\303\263n: "
.LC4:
	.string	"%d"
	.text
	.globl	pedir_opcion
	.type	pedir_opcion, @function
pedir_opcion:
.LFB7:
	.cfi_startproc
	endbr64
	pushq	%rbp
	.cfi_def_cfa_offset 16
	.cfi_offset 6, -16
	movq	%rsp, %rbp
	.cfi_def_cfa_register 6
	subq	$16, %rsp
	movq	%fs:40, %rax
	movq	%rax, -8(%rbp)
	xorl	%eax, %eax
	movl	$0, -12(%rbp)
	leaq	.LC3(%rip), %rax
	movq	%rax, %rdi
	movl	$0, %eax
	call	printf@PLT
	leaq	-12(%rbp), %rax
	movq	%rax, %rsi
	leaq	.LC4(%rip), %rax
	movq	%rax, %rdi
	movl	$0, %eax
	call	__isoc99_scanf@PLT
	movl	-12(%rbp), %eax
	movq	-8(%rbp), %rdx
	subq	%fs:40, %rdx
	je	.L4
	call	__stack_chk_fail@PLT
.L4:
	leave
	.cfi_def_cfa 7, 8
	ret
	.cfi_endproc
.LFE7:
	.size	pedir_opcion, .-pedir_opcion
	.section	.rodata
.LC5:
	.string	"Pon algo coherente"
	.text
	.globl	repito
	.type	repito, @function
repito:
.LFB8:
	.cfi_startproc
	endbr64
	pushq	%rbp
	.cfi_def_cfa_offset 16
	.cfi_offset 6, -16
	movq	%rsp, %rbp
	.cfi_def_cfa_register 6
	leaq	.LC5(%rip), %rax
	movq	%rax, %rdi
	call	puts@PLT
	nop
	popq	%rbp
	.cfi_def_cfa 7, 8
	ret
	.cfi_endproc
.LFE8:
	.size	repito, .-repito
	.section	.rodata
	.align 8
.LC6:
	.string	"\nTRI\303\201NGULO\nIngrese longitud del lado 1: "
.LC7:
	.string	"%f"
.LC8:
	.string	"Ingrese longitud del lado 2: "
.LC9:
	.string	"Ingrese longitud del lado 3: "
.LC10:
	.string	"Ingrese Base: "
.LC11:
	.string	"Ingrese Altura: "
	.align 8
.LC12:
	.string	"\n\303\201rea: %.2f\nPer\303\255metro: %.2f\n"
	.text
	.globl	triangulo
	.type	triangulo, @function
triangulo:
.LFB9:
	.cfi_startproc
	endbr64
	pushq	%rbp
	.cfi_def_cfa_offset 16
	.cfi_offset 6, -16
	movq	%rsp, %rbp
	.cfi_def_cfa_register 6
	subq	$48, %rsp
	movq	%fs:40, %rax
	movq	%rax, -8(%rbp)
	xorl	%eax, %eax
	leaq	.LC6(%rip), %rax
	movq	%rax, %rdi
	movl	$0, %eax
	call	printf@PLT
	leaq	-28(%rbp), %rax
	movq	%rax, %rsi
	leaq	.LC7(%rip), %rax
	movq	%rax, %rdi
	movl	$0, %eax
	call	__isoc99_scanf@PLT
	leaq	.LC8(%rip), %rax
	movq	%rax, %rdi
	movl	$0, %eax
	call	printf@PLT
	leaq	-24(%rbp), %rax
	movq	%rax, %rsi
	leaq	.LC7(%rip), %rax
	movq	%rax, %rdi
	movl	$0, %eax
	call	__isoc99_scanf@PLT
	leaq	.LC9(%rip), %rax
	movq	%rax, %rdi
	movl	$0, %eax
	call	printf@PLT
	leaq	-20(%rbp), %rax
	movq	%rax, %rsi
	leaq	.LC7(%rip), %rax
	movq	%rax, %rdi
	movl	$0, %eax
	call	__isoc99_scanf@PLT
	leaq	.LC10(%rip), %rax
	movq	%rax, %rdi
	movl	$0, %eax
	call	printf@PLT
	leaq	-16(%rbp), %rax
	movq	%rax, %rsi
	leaq	.LC7(%rip), %rax
	movq	%rax, %rdi
	movl	$0, %eax
	call	__isoc99_scanf@PLT
	leaq	.LC11(%rip), %rax
	movq	%rax, %rdi
	movl	$0, %eax
	call	printf@PLT
	leaq	-12(%rbp), %rax
	movq	%rax, %rsi
	leaq	.LC7(%rip), %rax
	movq	%rax, %rdi
	movl	$0, %eax
	call	__isoc99_scanf@PLT
	movss	-20(%rbp), %xmm1
	movss	-24(%rbp), %xmm0
	movl	-28(%rbp), %eax
	movaps	%xmm1, %xmm2
	movaps	%xmm0, %xmm1
	movd	%eax, %xmm0
	call	perimetro_triangulo@PLT
	pxor	%xmm3, %xmm3
	cvtss2sd	%xmm0, %xmm3
	movsd	%xmm3, -40(%rbp)
	movss	-12(%rbp), %xmm0
	movl	-16(%rbp), %eax
	movaps	%xmm0, %xmm1
	movd	%eax, %xmm0
	call	area_triangulo@PLT
	pxor	%xmm4, %xmm4
	cvtss2sd	%xmm0, %xmm4
	movq	%xmm4, %rax
	movsd	-40(%rbp), %xmm1
	movq	%rax, %xmm0
	leaq	.LC12(%rip), %rax
	movq	%rax, %rdi
	movl	$2, %eax
	call	printf@PLT
	nop
	movq	-8(%rbp), %rax
	subq	%fs:40, %rax
	je	.L7
	call	__stack_chk_fail@PLT
.L7:
	leave
	.cfi_def_cfa 7, 8
	ret
	.cfi_endproc
.LFE9:
	.size	triangulo, .-triangulo
	.section	.rodata
	.align 8
.LC13:
	.string	"\nPARALELOGRAMO\nIngrese longitud del lado 1: "
	.text
	.globl	paralelogramo
	.type	paralelogramo, @function
paralelogramo:
.LFB10:
	.cfi_startproc
	endbr64
	pushq	%rbp
	.cfi_def_cfa_offset 16
	.cfi_offset 6, -16
	movq	%rsp, %rbp
	.cfi_def_cfa_register 6
	subq	$48, %rsp
	movq	%fs:40, %rax
	movq	%rax, -8(%rbp)
	xorl	%eax, %eax
	leaq	.LC13(%rip), %rax
	movq	%rax, %rdi
	movl	$0, %eax
	call	printf@PLT
	leaq	-24(%rbp), %rax
	movq	%rax, %rsi
	leaq	.LC7(%rip), %rax
	movq	%rax, %rdi
	movl	$0, %eax
	call	__isoc99_scanf@PLT
	leaq	.LC8(%rip), %rax
	movq	%rax, %rdi
	movl	$0, %eax
	call	printf@PLT
	leaq	-20(%rbp), %rax
	movq	%rax, %rsi
	leaq	.LC7(%rip), %rax
	movq	%rax, %rdi
	movl	$0, %eax
	call	__isoc99_scanf@PLT
	leaq	.LC10(%rip), %rax
	movq	%rax, %rdi
	movl	$0, %eax
	call	printf@PLT
	leaq	-16(%rbp), %rax
	movq	%rax, %rsi
	leaq	.LC7(%rip), %rax
	movq	%rax, %rdi
	movl	$0, %eax
	call	__isoc99_scanf@PLT
	leaq	.LC11(%rip), %rax
	movq	%rax, %rdi
	movl	$0, %eax
	call	printf@PLT
	leaq	-12(%rbp), %rax
	movq	%rax, %rsi
	leaq	.LC7(%rip), %rax
	movq	%rax, %rdi
	movl	$0, %eax
	call	__isoc99_scanf@PLT
	movss	-20(%rbp), %xmm0
	movl	-24(%rbp), %eax
	movaps	%xmm0, %xmm1
	movd	%eax, %xmm0
	call	perimetro_cuadrilatero@PLT
	pxor	%xmm2, %xmm2
	cvtss2sd	%xmm0, %xmm2
	movsd	%xmm2, -40(%rbp)
	movss	-12(%rbp), %xmm0
	movl	-16(%rbp), %eax
	movaps	%xmm0, %xmm1
	movd	%eax, %xmm0
	call	area_cuadrilatero@PLT
	pxor	%xmm3, %xmm3
	cvtss2sd	%xmm0, %xmm3
	movq	%xmm3, %rax
	movsd	-40(%rbp), %xmm1
	movq	%rax, %xmm0
	leaq	.LC12(%rip), %rax
	movq	%rax, %rdi
	movl	$2, %eax
	call	printf@PLT
	nop
	movq	-8(%rbp), %rax
	subq	%fs:40, %rax
	je	.L9
	call	__stack_chk_fail@PLT
.L9:
	leave
	.cfi_def_cfa 7, 8
	ret
	.cfi_endproc
.LFE10:
	.size	paralelogramo, .-paralelogramo
	.section	.rodata
	.align 8
.LC14:
	.string	"\nCUADRADO\nIngrese longitud de los lados: "
	.text
	.globl	cuadrado
	.type	cuadrado, @function
cuadrado:
.LFB11:
	.cfi_startproc
	endbr64
	pushq	%rbp
	.cfi_def_cfa_offset 16
	.cfi_offset 6, -16
	movq	%rsp, %rbp
	.cfi_def_cfa_register 6
	subq	$32, %rsp
	movq	%fs:40, %rax
	movq	%rax, -8(%rbp)
	xorl	%eax, %eax
	leaq	.LC14(%rip), %rax
	movq	%rax, %rdi
	movl	$0, %eax
	call	printf@PLT
	leaq	-12(%rbp), %rax
	movq	%rax, %rsi
	leaq	.LC7(%rip), %rax
	movq	%rax, %rdi
	movl	$0, %eax
	call	__isoc99_scanf@PLT
	movss	-12(%rbp), %xmm0
	movl	-12(%rbp), %eax
	movaps	%xmm0, %xmm1
	movd	%eax, %xmm0
	call	perimetro_cuadrilatero@PLT
	pxor	%xmm2, %xmm2
	cvtss2sd	%xmm0, %xmm2
	movsd	%xmm2, -24(%rbp)
	movss	-12(%rbp), %xmm0
	movl	-12(%rbp), %eax
	movaps	%xmm0, %xmm1
	movd	%eax, %xmm0
	call	area_cuadrilatero@PLT
	pxor	%xmm3, %xmm3
	cvtss2sd	%xmm0, %xmm3
	movq	%xmm3, %rax
	movsd	-24(%rbp), %xmm1
	movq	%rax, %xmm0
	leaq	.LC12(%rip), %rax
	movq	%rax, %rdi
	movl	$2, %eax
	call	printf@PLT
	nop
	movq	-8(%rbp), %rax
	subq	%fs:40, %rax
	je	.L11
	call	__stack_chk_fail@PLT
.L11:
	leave
	.cfi_def_cfa 7, 8
	ret
	.cfi_endproc
.LFE11:
	.size	cuadrado, .-cuadrado
	.section	.rodata
.LC15:
	.string	"\nRECT\303\201NGULO\nIngrese Base: "
	.text
	.globl	rectangulo
	.type	rectangulo, @function
rectangulo:
.LFB12:
	.cfi_startproc
	endbr64
	pushq	%rbp
	.cfi_def_cfa_offset 16
	.cfi_offset 6, -16
	movq	%rsp, %rbp
	.cfi_def_cfa_register 6
	subq	$32, %rsp
	movq	%fs:40, %rax
	movq	%rax, -8(%rbp)
	xorl	%eax, %eax
	leaq	.LC15(%rip), %rax
	movq	%rax, %rdi
	movl	$0, %eax
	call	printf@PLT
	leaq	-16(%rbp), %rax
	movq	%rax, %rsi
	leaq	.LC7(%rip), %rax
	movq	%rax, %rdi
	movl	$0, %eax
	call	__isoc99_scanf@PLT
	leaq	.LC11(%rip), %rax
	movq	%rax, %rdi
	movl	$0, %eax
	call	printf@PLT
	leaq	-12(%rbp), %rax
	movq	%rax, %rsi
	leaq	.LC7(%rip), %rax
	movq	%rax, %rdi
	movl	$0, %eax
	call	__isoc99_scanf@PLT
	movss	-12(%rbp), %xmm0
	movl	-16(%rbp), %eax
	movaps	%xmm0, %xmm1
	movd	%eax, %xmm0
	call	perimetro_cuadrilatero@PLT
	pxor	%xmm2, %xmm2
	cvtss2sd	%xmm0, %xmm2
	movsd	%xmm2, -24(%rbp)
	movss	-12(%rbp), %xmm0
	movl	-16(%rbp), %eax
	movaps	%xmm0, %xmm1
	movd	%eax, %xmm0
	call	area_cuadrilatero@PLT
	pxor	%xmm3, %xmm3
	cvtss2sd	%xmm0, %xmm3
	movq	%xmm3, %rax
	movsd	-24(%rbp), %xmm1
	movq	%rax, %xmm0
	leaq	.LC12(%rip), %rax
	movq	%rax, %rdi
	movl	$2, %eax
	call	printf@PLT
	nop
	movq	-8(%rbp), %rax
	subq	%fs:40, %rax
	je	.L13
	call	__stack_chk_fail@PLT
.L13:
	leave
	.cfi_def_cfa 7, 8
	ret
	.cfi_endproc
.LFE12:
	.size	rectangulo, .-rectangulo
	.section	.rodata
	.align 8
.LC16:
	.string	"\nROMBO\nIngrese longitud de los lados: "
.LC17:
	.string	"Ingrese Diagonal Mayor: "
.LC18:
	.string	"Ingrese Diagonal Menor: "
	.text
	.globl	rombo
	.type	rombo, @function
rombo:
.LFB13:
	.cfi_startproc
	endbr64
	pushq	%rbp
	.cfi_def_cfa_offset 16
	.cfi_offset 6, -16
	movq	%rsp, %rbp
	.cfi_def_cfa_register 6
	subq	$48, %rsp
	movq	%fs:40, %rax
	movq	%rax, -8(%rbp)
	xorl	%eax, %eax
	leaq	.LC16(%rip), %rax
	movq	%rax, %rdi
	movl	$0, %eax
	call	printf@PLT
	leaq	-12(%rbp), %rax
	movq	%rax, %rsi
	leaq	.LC7(%rip), %rax
	movq	%rax, %rdi
	movl	$0, %eax
	call	__isoc99_scanf@PLT
	leaq	.LC17(%rip), %rax
	movq	%rax, %rdi
	movl	$0, %eax
	call	printf@PLT
	leaq	-20(%rbp), %rax
	movq	%rax, %rsi
	leaq	.LC7(%rip), %rax
	movq	%rax, %rdi
	movl	$0, %eax
	call	__isoc99_scanf@PLT
	leaq	.LC18(%rip), %rax
	movq	%rax, %rdi
	movl	$0, %eax
	call	printf@PLT
	leaq	-16(%rbp), %rax
	movq	%rax, %rsi
	leaq	.LC7(%rip), %rax
	movq	%rax, %rdi
	movl	$0, %eax
	call	__isoc99_scanf@PLT
	movss	-12(%rbp), %xmm0
	movl	-12(%rbp), %eax
	movaps	%xmm0, %xmm1
	movd	%eax, %xmm0
	call	perimetro_cuadrilatero@PLT
	pxor	%xmm2, %xmm2
	cvtss2sd	%xmm0, %xmm2
	movsd	%xmm2, -40(%rbp)
	movss	-16(%rbp), %xmm0
	movl	-20(%rbp), %eax
	movaps	%xmm0, %xmm1
	movd	%eax, %xmm0
	call	area_triangulo@PLT
	pxor	%xmm3, %xmm3
	cvtss2sd	%xmm0, %xmm3
	movq	%xmm3, %rax
	movsd	-40(%rbp), %xmm1
	movq	%rax, %xmm0
	leaq	.LC12(%rip), %rax
	movq	%rax, %rdi
	movl	$2, %eax
	call	printf@PLT
	nop
	movq	-8(%rbp), %rax
	subq	%fs:40, %rax
	je	.L15
	call	__stack_chk_fail@PLT
.L15:
	leave
	.cfi_def_cfa 7, 8
	ret
	.cfi_endproc
.LFE13:
	.size	rombo, .-rombo
	.section	.rodata
	.align 8
.LC19:
	.string	"\nTRAPECIO\nIngrese longitud del lado Izquierdo: "
	.align 8
.LC20:
	.string	"Ingrese longitud del lado Derecho: "
.LC21:
	.string	"Ingrese Base Menor: "
.LC22:
	.string	"Ingrese Base Mayor: "
	.text
	.globl	trapecio
	.type	trapecio, @function
trapecio:
.LFB14:
	.cfi_startproc
	endbr64
	pushq	%rbp
	.cfi_def_cfa_offset 16
	.cfi_offset 6, -16
	movq	%rsp, %rbp
	.cfi_def_cfa_register 6
	subq	$48, %rsp
	movq	%fs:40, %rax
	movq	%rax, -8(%rbp)
	xorl	%eax, %eax
	leaq	.LC19(%rip), %rax
	movq	%rax, %rdi
	movl	$0, %eax
	call	printf@PLT
	leaq	-28(%rbp), %rax
	movq	%rax, %rsi
	leaq	.LC7(%rip), %rax
	movq	%rax, %rdi
	movl	$0, %eax
	call	__isoc99_scanf@PLT
	leaq	.LC20(%rip), %rax
	movq	%rax, %rdi
	movl	$0, %eax
	call	printf@PLT
	leaq	-24(%rbp), %rax
	movq	%rax, %rsi
	leaq	.LC7(%rip), %rax
	movq	%rax, %rdi
	movl	$0, %eax
	call	__isoc99_scanf@PLT
	leaq	.LC21(%rip), %rax
	movq	%rax, %rdi
	movl	$0, %eax
	call	printf@PLT
	leaq	-20(%rbp), %rax
	movq	%rax, %rsi
	leaq	.LC7(%rip), %rax
	movq	%rax, %rdi
	movl	$0, %eax
	call	__isoc99_scanf@PLT
	leaq	.LC22(%rip), %rax
	movq	%rax, %rdi
	movl	$0, %eax
	call	printf@PLT
	leaq	-16(%rbp), %rax
	movq	%rax, %rsi
	leaq	.LC7(%rip), %rax
	movq	%rax, %rdi
	movl	$0, %eax
	call	__isoc99_scanf@PLT
	leaq	.LC11(%rip), %rax
	movq	%rax, %rdi
	movl	$0, %eax
	call	printf@PLT
	leaq	-12(%rbp), %rax
	movq	%rax, %rsi
	leaq	.LC7(%rip), %rax
	movq	%rax, %rdi
	movl	$0, %eax
	call	__isoc99_scanf@PLT
	movss	-24(%rbp), %xmm2
	movss	-28(%rbp), %xmm1
	movss	-16(%rbp), %xmm0
	movl	-20(%rbp), %eax
	movaps	%xmm2, %xmm3
	movaps	%xmm1, %xmm2
	movaps	%xmm0, %xmm1
	movd	%eax, %xmm0
	call	perimetro_trapecio@PLT
	pxor	%xmm4, %xmm4
	cvtss2sd	%xmm0, %xmm4
	movsd	%xmm4, -40(%rbp)
	movss	-12(%rbp), %xmm1
	movss	-16(%rbp), %xmm0
	movl	-20(%rbp), %eax
	movaps	%xmm1, %xmm2
	movaps	%xmm0, %xmm1
	movd	%eax, %xmm0
	call	area_trapecio@PLT
	pxor	%xmm5, %xmm5
	cvtss2sd	%xmm0, %xmm5
	movq	%xmm5, %rax
	movsd	-40(%rbp), %xmm1
	movq	%rax, %xmm0
	leaq	.LC12(%rip), %rax
	movq	%rax, %rdi
	movl	$2, %eax
	call	printf@PLT
	nop
	movq	-8(%rbp), %rax
	subq	%fs:40, %rax
	je	.L17
	call	__stack_chk_fail@PLT
.L17:
	leave
	.cfi_def_cfa 7, 8
	ret
	.cfi_endproc
.LFE14:
	.size	trapecio, .-trapecio
	.section	.rodata
	.align 8
.LC23:
	.string	"\nC\303\215RCULO\nIngrese longitud del radio: "
	.text
	.globl	circulo
	.type	circulo, @function
circulo:
.LFB15:
	.cfi_startproc
	endbr64
	pushq	%rbp
	.cfi_def_cfa_offset 16
	.cfi_offset 6, -16
	movq	%rsp, %rbp
	.cfi_def_cfa_register 6
	subq	$32, %rsp
	movq	%fs:40, %rax
	movq	%rax, -8(%rbp)
	xorl	%eax, %eax
	leaq	.LC23(%rip), %rax
	movq	%rax, %rdi
	movl	$0, %eax
	call	printf@PLT
	leaq	-12(%rbp), %rax
	movq	%rax, %rsi
	leaq	.LC7(%rip), %rax
	movq	%rax, %rdi
	movl	$0, %eax
	call	__isoc99_scanf@PLT
	movl	-12(%rbp), %eax
	movd	%eax, %xmm0
	call	perimetro_circulo@PLT
	pxor	%xmm2, %xmm2
	cvtss2sd	%xmm0, %xmm2
	movsd	%xmm2, -24(%rbp)
	movl	-12(%rbp), %eax
	movd	%eax, %xmm0
	call	area_circulo@PLT
	pxor	%xmm3, %xmm3
	cvtss2sd	%xmm0, %xmm3
	movq	%xmm3, %rax
	movsd	-24(%rbp), %xmm1
	movq	%rax, %xmm0
	leaq	.LC12(%rip), %rax
	movq	%rax, %rdi
	movl	$2, %eax
	call	printf@PLT
	nop
	movq	-8(%rbp), %rax
	subq	%fs:40, %rax
	je	.L19
	call	__stack_chk_fail@PLT
.L19:
	leave
	.cfi_def_cfa 7, 8
	ret
	.cfi_endproc
.LFE15:
	.size	circulo, .-circulo
	.section	.rodata
	.align 8
.LC24:
	.string	"\nPOL\303\215GONO REGULAR\nIngrese longitud de los lados: "
.LC25:
	.string	"Ingrese n\303\272mero de lados: "
	.text
	.globl	poligono_regular
	.type	poligono_regular, @function
poligono_regular:
.LFB16:
	.cfi_startproc
	endbr64
	pushq	%rbp
	.cfi_def_cfa_offset 16
	.cfi_offset 6, -16
	movq	%rsp, %rbp
	.cfi_def_cfa_register 6
	subq	$32, %rsp
	movq	%fs:40, %rax
	movq	%rax, -8(%rbp)
	xorl	%eax, %eax
	leaq	.LC24(%rip), %rax
	movq	%rax, %rdi
	movl	$0, %eax
	call	printf@PLT
	leaq	-16(%rbp), %rax
	movq	%rax, %rsi
	leaq	.LC7(%rip), %rax
	movq	%rax, %rdi
	movl	$0, %eax
	call	__isoc99_scanf@PLT
	leaq	.LC25(%rip), %rax
	movq	%rax, %rdi
	movl	$0, %eax
	call	printf@PLT
	leaq	-12(%rbp), %rax
	movq	%rax, %rsi
	leaq	.LC7(%rip), %rax
	movq	%rax, %rdi
	movl	$0, %eax
	call	__isoc99_scanf@PLT
	movss	-12(%rbp), %xmm0
	movl	-16(%rbp), %eax
	movaps	%xmm0, %xmm1
	movd	%eax, %xmm0
	call	perimetro_poligonor@PLT
	pxor	%xmm2, %xmm2
	cvtss2sd	%xmm0, %xmm2
	movsd	%xmm2, -24(%rbp)
	movss	-12(%rbp), %xmm0
	movl	-16(%rbp), %eax
	movaps	%xmm0, %xmm1
	movd	%eax, %xmm0
	call	area_poligonor@PLT
	pxor	%xmm3, %xmm3
	cvtss2sd	%xmm0, %xmm3
	movq	%xmm3, %rax
	movsd	-24(%rbp), %xmm1
	movq	%rax, %xmm0
	leaq	.LC12(%rip), %rax
	movq	%rax, %rdi
	movl	$2, %eax
	call	printf@PLT
	nop
	movq	-8(%rbp), %rax
	subq	%fs:40, %rax
	je	.L21
	call	__stack_chk_fail@PLT
.L21:
	leave
	.cfi_def_cfa 7, 8
	ret
	.cfi_endproc
.LFE16:
	.size	poligono_regular, .-poligono_regular
	.section	.rodata
	.align 8
.LC26:
	.string	"\nCUBO\nIngrese la longitud de los lados: "
	.align 8
.LC27:
	.string	"\nVolumen: %.2f\n\303\201rea de la Superficie: %.2f \n"
	.text
	.globl	cubo
	.type	cubo, @function
cubo:
.LFB17:
	.cfi_startproc
	endbr64
	pushq	%rbp
	.cfi_def_cfa_offset 16
	.cfi_offset 6, -16
	movq	%rsp, %rbp
	.cfi_def_cfa_register 6
	subq	$32, %rsp
	movq	%fs:40, %rax
	movq	%rax, -8(%rbp)
	xorl	%eax, %eax
	leaq	.LC26(%rip), %rax
	movq	%rax, %rdi
	movl	$0, %eax
	call	printf@PLT
	leaq	-12(%rbp), %rax
	movq	%rax, %rsi
	leaq	.LC7(%rip), %rax
	movq	%rax, %rdi
	movl	$0, %eax
	call	__isoc99_scanf@PLT
	movl	-12(%rbp), %eax
	movd	%eax, %xmm0
	call	superficie_cubo@PLT
	pxor	%xmm2, %xmm2
	cvtss2sd	%xmm0, %xmm2
	movsd	%xmm2, -24(%rbp)
	movl	-12(%rbp), %eax
	movd	%eax, %xmm0
	call	volumen_cubo@PLT
	pxor	%xmm3, %xmm3
	cvtss2sd	%xmm0, %xmm3
	movq	%xmm3, %rax
	movsd	-24(%rbp), %xmm1
	movq	%rax, %xmm0
	leaq	.LC27(%rip), %rax
	movq	%rax, %rdi
	movl	$2, %eax
	call	printf@PLT
	nop
	movq	-8(%rbp), %rax
	subq	%fs:40, %rax
	je	.L23
	call	__stack_chk_fail@PLT
.L23:
	leave
	.cfi_def_cfa 7, 8
	ret
	.cfi_endproc
.LFE17:
	.size	cubo, .-cubo
	.section	.rodata
	.align 8
.LC28:
	.string	"\nCUBOIDE\nIngrese la longitud de altura: "
	.align 8
.LC29:
	.string	"\nIngrese la longitud de anchura: "
	.align 8
.LC30:
	.string	"\nIngrese la longitud de prufundidad: "
	.text
	.globl	cuboide
	.type	cuboide, @function
cuboide:
.LFB18:
	.cfi_startproc
	endbr64
	pushq	%rbp
	.cfi_def_cfa_offset 16
	.cfi_offset 6, -16
	movq	%rsp, %rbp
	.cfi_def_cfa_register 6
	subq	$48, %rsp
	movq	%fs:40, %rax
	movq	%rax, -8(%rbp)
	xorl	%eax, %eax
	leaq	.LC28(%rip), %rax
	movq	%rax, %rdi
	movl	$0, %eax
	call	printf@PLT
	leaq	-20(%rbp), %rax
	movq	%rax, %rsi
	leaq	.LC7(%rip), %rax
	movq	%rax, %rdi
	movl	$0, %eax
	call	__isoc99_scanf@PLT
	leaq	.LC29(%rip), %rax
	movq	%rax, %rdi
	movl	$0, %eax
	call	printf@PLT
	leaq	-16(%rbp), %rax
	movq	%rax, %rsi
	leaq	.LC7(%rip), %rax
	movq	%rax, %rdi
	movl	$0, %eax
	call	__isoc99_scanf@PLT
	leaq	.LC30(%rip), %rax
	movq	%rax, %rdi
	movl	$0, %eax
	call	printf@PLT
	leaq	-12(%rbp), %rax
	movq	%rax, %rsi
	leaq	.LC7(%rip), %rax
	movq	%rax, %rdi
	movl	$0, %eax
	call	__isoc99_scanf@PLT
	movss	-12(%rbp), %xmm1
	movss	-16(%rbp), %xmm0
	movl	-20(%rbp), %eax
	movaps	%xmm1, %xmm2
	movaps	%xmm0, %xmm1
	movd	%eax, %xmm0
	call	superficie_cuboide@PLT
	pxor	%xmm3, %xmm3
	cvtss2sd	%xmm0, %xmm3
	movsd	%xmm3, -40(%rbp)
	movss	-12(%rbp), %xmm1
	movss	-16(%rbp), %xmm0
	movl	-20(%rbp), %eax
	movaps	%xmm1, %xmm2
	movaps	%xmm0, %xmm1
	movd	%eax, %xmm0
	call	volumen_cuboide@PLT
	pxor	%xmm4, %xmm4
	cvtss2sd	%xmm0, %xmm4
	movq	%xmm4, %rax
	movsd	-40(%rbp), %xmm1
	movq	%rax, %xmm0
	leaq	.LC27(%rip), %rax
	movq	%rax, %rdi
	movl	$2, %eax
	call	printf@PLT
	nop
	movq	-8(%rbp), %rax
	subq	%fs:40, %rax
	je	.L25
	call	__stack_chk_fail@PLT
.L25:
	leave
	.cfi_def_cfa 7, 8
	ret
	.cfi_endproc
.LFE18:
	.size	cuboide, .-cuboide
	.section	.rodata
	.align 8
.LC31:
	.string	"\nCILINDRO RECTO\nIngrese la longitud de altura: "
	.align 8
.LC32:
	.string	"\nIngrese el radio de la base: "
	.text
	.globl	cilindro
	.type	cilindro, @function
cilindro:
.LFB19:
	.cfi_startproc
	endbr64
	pushq	%rbp
	.cfi_def_cfa_offset 16
	.cfi_offset 6, -16
	movq	%rsp, %rbp
	.cfi_def_cfa_register 6
	subq	$32, %rsp
	movq	%fs:40, %rax
	movq	%rax, -8(%rbp)
	xorl	%eax, %eax
	leaq	.LC31(%rip), %rax
	movq	%rax, %rdi
	movl	$0, %eax
	call	printf@PLT
	leaq	-12(%rbp), %rax
	movq	%rax, %rsi
	leaq	.LC7(%rip), %rax
	movq	%rax, %rdi
	movl	$0, %eax
	call	__isoc99_scanf@PLT
	leaq	.LC32(%rip), %rax
	movq	%rax, %rdi
	movl	$0, %eax
	call	printf@PLT
	leaq	-16(%rbp), %rax
	movq	%rax, %rsi
	leaq	.LC7(%rip), %rax
	movq	%rax, %rdi
	movl	$0, %eax
	call	__isoc99_scanf@PLT
	movss	-12(%rbp), %xmm0
	movl	-16(%rbp), %eax
	movaps	%xmm0, %xmm1
	movd	%eax, %xmm0
	call	superficie_cilindro@PLT
	pxor	%xmm2, %xmm2
	cvtss2sd	%xmm0, %xmm2
	movsd	%xmm2, -24(%rbp)
	movss	-12(%rbp), %xmm0
	movl	-16(%rbp), %eax
	movaps	%xmm0, %xmm1
	movd	%eax, %xmm0
	call	volumen_cilindro@PLT
	pxor	%xmm3, %xmm3
	cvtss2sd	%xmm0, %xmm3
	movq	%xmm3, %rax
	movsd	-24(%rbp), %xmm1
	movq	%rax, %xmm0
	leaq	.LC27(%rip), %rax
	movq	%rax, %rdi
	movl	$2, %eax
	call	printf@PLT
	nop
	movq	-8(%rbp), %rax
	subq	%fs:40, %rax
	je	.L27
	call	__stack_chk_fail@PLT
.L27:
	leave
	.cfi_def_cfa 7, 8
	ret
	.cfi_endproc
.LFE19:
	.size	cilindro, .-cilindro
	.section	.rodata
	.align 8
.LC33:
	.string	"\nESFERA\nIngrese la longitud del radio: "
	.text
	.globl	esfera
	.type	esfera, @function
esfera:
.LFB20:
	.cfi_startproc
	endbr64
	pushq	%rbp
	.cfi_def_cfa_offset 16
	.cfi_offset 6, -16
	movq	%rsp, %rbp
	.cfi_def_cfa_register 6
	subq	$32, %rsp
	movq	%fs:40, %rax
	movq	%rax, -8(%rbp)
	xorl	%eax, %eax
	leaq	.LC33(%rip), %rax
	movq	%rax, %rdi
	movl	$0, %eax
	call	printf@PLT
	leaq	-16(%rbp), %rax
	movq	%rax, %rsi
	leaq	.LC7(%rip), %rax
	movq	%rax, %rdi
	movl	$0, %eax
	call	__isoc99_scanf@PLT
	movl	-12(%rbp), %eax
	movd	%eax, %xmm0
	call	superficie_esfera@PLT
	pxor	%xmm2, %xmm2
	cvtss2sd	%xmm0, %xmm2
	movsd	%xmm2, -24(%rbp)
	movl	-12(%rbp), %eax
	movd	%eax, %xmm0
	call	volumen_esfera@PLT
	pxor	%xmm3, %xmm3
	cvtss2sd	%xmm0, %xmm3
	movq	%xmm3, %rax
	movsd	-24(%rbp), %xmm1
	movq	%rax, %xmm0
	leaq	.LC27(%rip), %rax
	movq	%rax, %rdi
	movl	$2, %eax
	call	printf@PLT
	nop
	movq	-8(%rbp), %rax
	subq	%fs:40, %rax
	je	.L29
	call	__stack_chk_fail@PLT
.L29:
	leave
	.cfi_def_cfa 7, 8
	ret
	.cfi_endproc
.LFE20:
	.size	esfera, .-esfera
	.section	.rodata
	.align 8
.LC34:
	.string	"\nCONO C\303\215RCULAR RECTO\nIngrese la longitud de altura: "
	.align 8
.LC35:
	.string	"\nIngrese la longitud de la generatriz: "
	.text
	.globl	cono
	.type	cono, @function
cono:
.LFB21:
	.cfi_startproc
	endbr64
	pushq	%rbp
	.cfi_def_cfa_offset 16
	.cfi_offset 6, -16
	movq	%rsp, %rbp
	.cfi_def_cfa_register 6
	subq	$48, %rsp
	movq	%fs:40, %rax
	movq	%rax, -8(%rbp)
	xorl	%eax, %eax
	leaq	.LC34(%rip), %rax
	movq	%rax, %rdi
	movl	$0, %eax
	call	printf@PLT
	leaq	-16(%rbp), %rax
	movq	%rax, %rsi
	leaq	.LC7(%rip), %rax
	movq	%rax, %rdi
	movl	$0, %eax
	call	__isoc99_scanf@PLT
	leaq	.LC32(%rip), %rax
	movq	%rax, %rdi
	movl	$0, %eax
	call	printf@PLT
	leaq	-20(%rbp), %rax
	movq	%rax, %rsi
	leaq	.LC7(%rip), %rax
	movq	%rax, %rdi
	movl	$0, %eax
	call	__isoc99_scanf@PLT
	leaq	.LC35(%rip), %rax
	movq	%rax, %rdi
	movl	$0, %eax
	call	printf@PLT
	leaq	-12(%rbp), %rax
	movq	%rax, %rsi
	leaq	.LC7(%rip), %rax
	movq	%rax, %rdi
	movl	$0, %eax
	call	__isoc99_scanf@PLT
	movss	-12(%rbp), %xmm0
	movl	-20(%rbp), %eax
	movaps	%xmm0, %xmm1
	movd	%eax, %xmm0
	call	superficie_cono@PLT
	pxor	%xmm2, %xmm2
	cvtss2sd	%xmm0, %xmm2
	movsd	%xmm2, -40(%rbp)
	movss	-16(%rbp), %xmm0
	movl	-20(%rbp), %eax
	movaps	%xmm0, %xmm1
	movd	%eax, %xmm0
	call	volumen_cono@PLT
	pxor	%xmm3, %xmm3
	cvtss2sd	%xmm0, %xmm3
	movq	%xmm3, %rax
	movsd	-40(%rbp), %xmm1
	movq	%rax, %xmm0
	leaq	.LC27(%rip), %rax
	movq	%rax, %rdi
	movl	$2, %eax
	call	printf@PLT
	nop
	movq	-8(%rbp), %rax
	subq	%fs:40, %rax
	je	.L31
	call	__stack_chk_fail@PLT
.L31:
	leave
	.cfi_def_cfa 7, 8
	ret
	.cfi_endproc
.LFE21:
	.size	cono, .-cono
	.section	.rodata
.LC36:
	.string	"\nIngrese su Usuario:"
.LC37:
	.string	"Ingrese su Contrase\303\261a:"
	.align 8
.LC38:
	.string	"\nUsuario y/o Contrase\303\261a no validos, intente otra vez"
	.align 8
.LC39:
	.string	"\nInicio exitoso!\n Bienvenido %s\n"
	.text
	.globl	InicioSesion
	.type	InicioSesion, @function
InicioSesion:
.LFB22:
	.cfi_startproc
	endbr64
	pushq	%rbp
	.cfi_def_cfa_offset 16
	.cfi_offset 6, -16
	movq	%rsp, %rbp
	.cfi_def_cfa_register 6
	subq	$144, %rsp
	movq	%fs:40, %rax
	movq	%rax, -8(%rbp)
	xorl	%eax, %eax
	movq	$0, -128(%rbp)
	movq	$0, -120(%rbp)
	movq	$0, -112(%rbp)
	movq	$0, -104(%rbp)
	movq	$0, -96(%rbp)
	movq	$0, -88(%rbp)
	movw	$0, -80(%rbp)
	movq	$0, -64(%rbp)
	movq	$0, -56(%rbp)
	movq	$0, -48(%rbp)
	movq	$0, -40(%rbp)
	movq	$0, -32(%rbp)
	movq	$0, -24(%rbp)
	movw	$0, -16(%rbp)
	movl	$0, -132(%rbp)
	jmp	.L33
.L35:
	leaq	.LC36(%rip), %rax
	movq	%rax, %rdi
	call	puts@PLT
	movq	stdin(%rip), %rdx
	leaq	-128(%rbp), %rax
	movl	$50, %esi
	movq	%rax, %rdi
	call	fgets@PLT
	leaq	.LC37(%rip), %rax
	movq	%rax, %rdi
	call	puts@PLT
	movq	stdin(%rip), %rdx
	leaq	-64(%rbp), %rax
	movl	$50, %esi
	movq	%rax, %rdi
	call	fgets@PLT
	leaq	-64(%rbp), %rdx
	leaq	-128(%rbp), %rax
	movq	%rdx, %rsi
	movq	%rax, %rdi
	call	ValidarUser@PLT
	movl	%eax, -132(%rbp)
	cmpl	$0, -132(%rbp)
	jne	.L33
	leaq	.LC38(%rip), %rax
	movq	%rax, %rdi
	call	puts@PLT
	leaq	-128(%rbp), %rax
	movq	%rax, %rdi
	call	InicioFallido@PLT
.L33:
	cmpl	$0, -132(%rbp)
	je	.L35
	leaq	-128(%rbp), %rax
	movq	%rax, %rsi
	leaq	.LC39(%rip), %rax
	movq	%rax, %rdi
	movl	$0, %eax
	call	printf@PLT
	leaq	-128(%rbp), %rax
	movq	%rax, %rdi
	call	InicioExitoso@PLT
	nop
	movq	-8(%rbp), %rdx
	subq	%fs:40, %rdx
	je	.L36
	call	__stack_chk_fail@PLT
.L36:
	leave
	.cfi_def_cfa 7, 8
	ret
	.cfi_endproc
.LFE22:
	.size	InicioSesion, .-InicioSesion
	.ident	"GCC: (Ubuntu 13.2.0-23ubuntu4) 13.2.0"
	.section	.note.GNU-stack,"",@progbits
	.section	.note.gnu.property,"a"
	.align 8
	.long	1f - 0f
	.long	4f - 1f
	.long	5
0:
	.string	"GNU"
1:
	.align 8
	.long	0xc0000002
	.long	3f - 2f
2:
	.long	0x3
3:
	.align 8
4:
